target datalayout = "e-m:e-p270:32:32-p271:32:32-p272:64:64-i64:64-i128:128-f80:128-n8:16:32:64-S128"
target triple = "x86_64-pc-linux-gnu"

%struct.vtx_data = type { i64, ptr, ptr, ptr, ptr }

; Function Attrs: nounwind uwtable
define void @right_mult_with_vector(ptr noundef %0, i32 noundef %1, ptr noundef %2, ptr noundef %3) #0 {
  %5 = alloca ptr, align 8
  %6 = alloca i32, align 4
  %7 = alloca ptr, align 8
  %8 = alloca ptr, align 8
  %9 = alloca i32, align 4
  %10 = alloca double, align 8
  %11 = alloca i64, align 8
  store ptr %0, ptr %5, align 8, !tbaa !29
  store i32 %1, ptr %6, align 4, !tbaa !8
  store ptr %2, ptr %7, align 8, !tbaa !10
  store ptr %3, ptr %8, align 8, !tbaa !10
  call void @llvm.lifetime.start.p0(i64 4, ptr %9) #8
  call void @llvm.lifetime.start.p0(i64 8, ptr %10) #8
  store i32 0, ptr %9, align 4, !tbaa !8
  br label %12

12:                                               ; preds = %62, %4
  %13 = load i32, ptr %9, align 4, !tbaa !8
  %14 = load i32, ptr %6, align 4, !tbaa !8
  %15 = icmp slt i32 %13, %14
  br i1 %15, label %16, label %65

16:                                               ; preds = %12
  store double 0.000000e+00, ptr %10, align 8, !tbaa !12
  call void @llvm.lifetime.start.p0(i64 8, ptr %11) #8
  store i64 0, ptr %11, align 8, !tbaa !25
  br label %17

17:                                               ; preds = %53, %16
  %18 = load i64, ptr %11, align 8, !tbaa !25
  %19 = load ptr, ptr %5, align 8, !tbaa !29
  %20 = load i32, ptr %9, align 4, !tbaa !8
  %21 = sext i32 %20 to i64
  %22 = getelementptr inbounds %struct.vtx_data, ptr %19, i64 %21
  %23 = getelementptr inbounds nuw %struct.vtx_data, ptr %22, i32 0, i32 0
  %24 = load i64, ptr %23, align 8, !tbaa !60
  %25 = icmp ult i64 %18, %24
  br i1 %25, label %27, label %26

26:                                               ; preds = %17
  call void @llvm.lifetime.end.p0(i64 8, ptr %11) #8
  br label %56

27:                                               ; preds = %17
  %28 = load ptr, ptr %5, align 8, !tbaa !29
  %29 = load i32, ptr %9, align 4, !tbaa !8
  %30 = sext i32 %29 to i64
  %31 = getelementptr inbounds %struct.vtx_data, ptr %28, i64 %30
  %32 = getelementptr inbounds nuw %struct.vtx_data, ptr %31, i32 0, i32 2
  %33 = load ptr, ptr %32, align 8, !tbaa !59
  %34 = load i64, ptr %11, align 8, !tbaa !25
  %35 = getelementptr inbounds nuw float, ptr %33, i64 %34
  %36 = load float, ptr %35, align 4, !tbaa !43
  %37 = fpext float %36 to double
  %38 = load ptr, ptr %7, align 8, !tbaa !10
  %39 = load ptr, ptr %5, align 8, !tbaa !29
  %40 = load i32, ptr %9, align 4, !tbaa !8
  %41 = sext i32 %40 to i64
  %42 = getelementptr inbounds %struct.vtx_data, ptr %39, i64 %41
  %43 = getelementptr inbounds nuw %struct.vtx_data, ptr %42, i32 0, i32 1
  %44 = load ptr, ptr %43, align 8, !tbaa !55
  %45 = load i64, ptr %11, align 8, !tbaa !25
  %46 = getelementptr inbounds nuw i32, ptr %44, i64 %45
  %47 = load i32, ptr %46, align 4, !tbaa !8
  %48 = sext i32 %47 to i64
  %49 = getelementptr inbounds double, ptr %38, i64 %48
  %50 = load double, ptr %49, align 8, !tbaa !12
  %51 = load double, ptr %10, align 8, !tbaa !12
  %52 = call double @llvm.fmuladd.f64(double %37, double %50, double %51)
  store double %52, ptr %10, align 8, !tbaa !12
  br label %53

53:                                               ; preds = %27
  %54 = load i64, ptr %11, align 8, !tbaa !25
  %55 = add i64 %54, 1
  store i64 %55, ptr %11, align 8, !tbaa !25
  br label %17, !llvm.loop !67

56:                                               ; preds = %26
  %57 = load double, ptr %10, align 8, !tbaa !12
  %58 = load ptr, ptr %8, align 8, !tbaa !10
  %59 = load i32, ptr %9, align 4, !tbaa !8
  %60 = sext i32 %59 to i64
  %61 = getelementptr inbounds double, ptr %58, i64 %60
  store double %57, ptr %61, align 8, !tbaa !12
  br label %62

62:                                               ; preds = %56
  %63 = load i32, ptr %9, align 4, !tbaa !8
  %64 = add nsw i32 %63, 1
  store i32 %64, ptr %9, align 4, !tbaa !8
  br label %12, !llvm.loop !68

65:                                               ; preds = %12
  call void @llvm.lifetime.end.p0(i64 8, ptr %10) #8
  call void @llvm.lifetime.end.p0(i64 4, ptr %9) #8
  ret void
}