; Function Attrs: nofree norecurse nosync nounwind memory(read, argmem: readwrite, inaccessiblemem: none) uwtable
define void @right_mult_with_vector(ptr noundef readonly captures(none) %0, i32 noundef %1, ptr noundef readonly captures(none) %2, ptr noundef writeonly captures(none) %3) local_unnamed_addr #5 {
  %5 = icmp sgt i32 %1, 0
  br i1 %5, label %.preheader.preheader, label %._crit_edge23

.preheader.preheader:                             ; preds = %4
  %wide.trip.count = zext nneg i32 %1 to i64
  br label %.preheader

.preheader:                                       ; preds = %.preheader.preheader, %._crit_edge
  %indvars.iv = phi i64 [ 0, %.preheader.preheader ], [ %indvars.iv.next, %._crit_edge ]
  %6 = getelementptr inbounds nuw %struct.vtx_data, ptr %0, i64 %indvars.iv
  %7 = load i64, ptr %6, align 8, !tbaa !52
  %.not = icmp eq i64 %7, 0
  br i1 %.not, label %._crit_edge, label %.lr.ph

.lr.ph:                                           ; preds = %.preheader
  %8 = getelementptr inbounds nuw i8, ptr %6, i64 16
  %9 = load ptr, ptr %8, align 8, !tbaa !51
  %10 = getelementptr inbounds nuw i8, ptr %6, i64 8
  %11 = load ptr, ptr %10, align 8, !tbaa !47
  br label %13

._crit_edge:                                      ; preds = %13, %.preheader
  %.017.lcssa = phi double [ 0.000000e+00, %.preheader ], [ %22, %13 ]
  %12 = getelementptr inbounds nuw double, ptr %3, i64 %indvars.iv
  store double %.017.lcssa, ptr %12, align 8, !tbaa !10
  %indvars.iv.next = add nuw nsw i64 %indvars.iv, 1
  %exitcond25.not = icmp eq i64 %indvars.iv.next, %wide.trip.count
  br i1 %exitcond25.not, label %._crit_edge23, label %.preheader, !llvm.loop !60

13:                                               ; preds = %.lr.ph, %13
  %.020 = phi i64 [ 0, %.lr.ph ], [ %23, %13 ]
  %.01719 = phi double [ 0.000000e+00, %.lr.ph ], [ %22, %13 ]
  %14 = getelementptr inbounds nuw float, ptr %9, i64 %.020
  %15 = load float, ptr %14, align 4, !tbaa !35
  %16 = fpext float %15 to double
  %17 = getelementptr inbounds nuw i32, ptr %11, i64 %.020
  %18 = load i32, ptr %17, align 4, !tbaa !17
  %19 = sext i32 %18 to i64
  %20 = getelementptr inbounds double, ptr %2, i64 %19
  %21 = load double, ptr %20, align 8, !tbaa !10
  %22 = tail call double @llvm.fmuladd.f64(double %16, double %21, double %.01719)
  %23 = add nuw i64 %.020, 1
  %exitcond.not = icmp eq i64 %23, %7
  br i1 %exitcond.not, label %._crit_edge, label %13, !llvm.loop !61

._crit_edge23:                                    ; preds = %._crit_edge, %4
  ret void
}